; ModuleID = 'source-C-CXX/48/1006.cpp'
source_filename = "source-C-CXX/48/1006.cpp"
target datalayout = "e-m:e-p270:32:32-p271:32:32-p272:64:64-i64:64-f80:128-n8:16:32:64-S128"
target triple = "x86_64-pc-linux-gnu"

%"class.std::ios_base::Init" = type { i8 }
%"class.std::basic_istream" = type { i32 (...)**, i64, %"class.std::basic_ios" }
%"class.std::basic_ios" = type { %"class.std::ios_base", %"class.std::basic_ostream"*, i8, i8, %"class.std::basic_streambuf"*, %"class.std::ctype"*, %"class.std::num_put"*, %"class.std::num_get"* }
%"class.std::ios_base" = type { i32 (...)**, i64, i64, i32, i32, i32, %"struct.std::ios_base::_Callback_list"*, %"struct.std::ios_base::_Words", [8 x %"struct.std::ios_base::_Words"], i32, %"struct.std::ios_base::_Words"*, %"class.std::locale" }
%"struct.std::ios_base::_Callback_list" = type { %"struct.std::ios_base::_Callback_list"*, void (i32, %"class.std::ios_base"*, i32)*, i32, i32 }
%"struct.std::ios_base::_Words" = type { i8*, i64 }
%"class.std::locale" = type { %"class.std::locale::_Impl"* }
%"class.std::locale::_Impl" = type { i32, %"class.std::locale::facet"**, i64, %"class.std::locale::facet"**, i8** }
%"class.std::locale::facet" = type <{ i32 (...)**, i32, [4 x i8] }>
%"class.std::basic_ostream" = type { i32 (...)**, %"class.std::basic_ios" }
%"class.std::basic_streambuf" = type { i32 (...)**, i8*, i8*, i8*, i8*, i8*, i8*, %"class.std::locale" }
%"class.std::ctype" = type <{ %"class.std::locale::facet.base", [4 x i8], %struct.__locale_struct*, i8, [7 x i8], i32*, i32*, i16*, i8, [256 x i8], [256 x i8], i8, [6 x i8] }>
%"class.std::locale::facet.base" = type <{ i32 (...)**, i32 }>
%struct.__locale_struct = type { [13 x %struct.__locale_data*], i16*, i32*, i32*, [13 x i8*] }
%struct.__locale_data = type opaque
%"class.std::num_put" = type { %"class.std::locale::facet.base", [4 x i8] }
%"class.std::num_get" = type { %"class.std::locale::facet.base", [4 x i8] }

@_ZStL8__ioinit = internal global %"class.std::ios_base::Init" zeroinitializer, align 1
@__dso_handle = external hidden global i8
@_ZSt3cin = external global %"class.std::basic_istream", align 8
@_ZSt4cout = external global %"class.std::basic_ostream", align 8
@llvm.global_ctors = appending global [1 x { i32, void ()*, i8* }] [{ i32, void ()*, i8* } { i32 65535, void ()* @_GLOBAL__sub_I_1006.cpp, i8* null }]

declare void @_ZNSt8ios_base4InitC1Ev(%"class.std::ios_base::Init"* nonnull align 1 dereferenceable(1)) unnamed_addr #0

; Function Attrs: nounwind
declare void @_ZNSt8ios_base4InitD1Ev(%"class.std::ios_base::Init"* nonnull align 1 dereferenceable(1)) unnamed_addr #1

; Function Attrs: nofree nounwind
declare i32 @__cxa_atexit(void (i8*)*, i8*, i8*) local_unnamed_addr #2

; Function Attrs: mustprogress norecurse sspstrong uwtable
define dso_local i32 @main() local_unnamed_addr #3 {
  %1 = alloca i8, align 1
  %2 = alloca [501 x i8], align 16
  %3 = getelementptr inbounds [501 x i8], [501 x i8]* %2, i64 0, i64 0
  call void @llvm.lifetime.start.p0i8(i64 501, i8* nonnull %3) #7
  call void @_ZSt17__istream_extractRSiPcl(%"class.std::basic_istream"* nonnull align 8 dereferenceable(16) @_ZSt3cin, i8* nonnull %3, i64 501)
  br label %4

4:                                                ; preds = %4, %0
  %5 = phi i64 [ %10, %4 ], [ 0, %0 ]
  %6 = phi i32 [ %11, %4 ], [ undef, %0 ]
  %7 = getelementptr inbounds [501 x i8], [501 x i8]* %2, i64 0, i64 %5
  %8 = load i8, i8* %7, align 1, !tbaa !5
  %9 = icmp eq i8 %8, 0
  %10 = add nuw i64 %5, 1
  %11 = trunc i64 %5 to i32
  br i1 %9, label %12, label %4, !llvm.loop !8

12:                                               ; preds = %4
  %13 = add nsw i32 %6, 1
  %14 = icmp slt i32 %6, 1
  br i1 %14, label %98, label %15

15:                                               ; preds = %12
  %16 = add nuw i32 %6, 2
  %17 = zext i32 %16 to i64
  br label %18

18:                                               ; preds = %15, %92
  %19 = phi i32 [ %6, %15 ], [ %96, %92 ]
  %20 = phi i64 [ 2, %15 ], [ %95, %92 ]
  %21 = phi i32 [ 1, %15 ], [ %94, %92 ]
  %22 = phi i32 [ 2, %15 ], [ %93, %92 ]
  %23 = icmp slt i32 %13, %22
  br i1 %23, label %92, label %24

24:                                               ; preds = %18
  %25 = zext i32 %19 to i64
  br label %26

26:                                               ; preds = %24, %86
  %27 = phi i64 [ %20, %24 ], [ %90, %86 ]
  %28 = phi i64 [ 0, %24 ], [ %89, %86 ]
  %29 = phi i32 [ %21, %24 ], [ %88, %86 ]
  %30 = phi i32 [ 0, %24 ], [ %87, %86 ]
  %31 = add nuw nsw i32 %30, %22
  %32 = add nsw i32 %31, -1
  %33 = icmp sgt i32 %32, %30
  br i1 %33, label %35, label %34

34:                                               ; preds = %37, %26
  br label %51

35:                                               ; preds = %26
  %36 = sext i32 %29 to i64
  br label %42

37:                                               ; preds = %42
  %38 = add nsw i64 %44, -1
  %39 = shl i64 %50, 32
  %40 = ashr exact i64 %39, 32
  %41 = icmp sgt i64 %38, %40
  br i1 %41, label %42, label %34, !llvm.loop !10

42:                                               ; preds = %35, %37
  %43 = phi i64 [ %28, %35 ], [ %50, %37 ]
  %44 = phi i64 [ %36, %35 ], [ %38, %37 ]
  %45 = getelementptr inbounds [501 x i8], [501 x i8]* %2, i64 0, i64 %43
  %46 = load i8, i8* %45, align 1, !tbaa !5
  %47 = getelementptr inbounds [501 x i8], [501 x i8]* %2, i64 0, i64 %44
  %48 = load i8, i8* %47, align 1, !tbaa !5
  %49 = icmp eq i8 %46, %48
  %50 = add nuw i64 %43, 1
  br i1 %49, label %37, label %86

51:                                               ; preds = %34, %51
  %52 = phi i64 [ %56, %51 ], [ %28, %34 ]
  %53 = getelementptr inbounds [501 x i8], [501 x i8]* %2, i64 0, i64 %52
  %54 = load i8, i8* %53, align 1, !tbaa !5
  call void @llvm.lifetime.start.p0i8(i64 1, i8* nonnull %1)
  store i8 %54, i8* %1, align 1, !tbaa !5
  %55 = call nonnull align 8 dereferenceable(8) %"class.std::basic_ostream"* @_ZSt16__ostream_insertIcSt11char_traitsIcEERSt13basic_ostreamIT_T0_ES6_PKS3_l(%"class.std::basic_ostream"* nonnull align 8 dereferenceable(8) @_ZSt4cout, i8* nonnull %1, i64 1)
  call void @llvm.lifetime.end.p0i8(i64 1, i8* nonnull %1)
  %56 = add nuw nsw i64 %52, 1
  %57 = icmp eq i64 %56, %27
  br i1 %57, label %58, label %51, !llvm.loop !11

58:                                               ; preds = %51
  %59 = load i8*, i8** bitcast (%"class.std::basic_ostream"* @_ZSt4cout to i8**), align 8, !tbaa !12
  %60 = getelementptr i8, i8* %59, i64 -24
  %61 = bitcast i8* %60 to i64*
  %62 = load i64, i64* %61, align 8
  %63 = add nsw i64 %62, 240
  %64 = getelementptr inbounds i8, i8* bitcast (%"class.std::basic_ostream"* @_ZSt4cout to i8*), i64 %63
  %65 = bitcast i8* %64 to %"class.std::ctype"**
  %66 = load %"class.std::ctype"*, %"class.std::ctype"** %65, align 8, !tbaa !14
  %67 = icmp eq %"class.std::ctype"* %66, null
  br i1 %67, label %68, label %69

68:                                               ; preds = %58
  call void @_ZSt16__throw_bad_castv() #8
  unreachable

69:                                               ; preds = %58
  %70 = getelementptr inbounds %"class.std::ctype", %"class.std::ctype"* %66, i64 0, i32 8
  %71 = load i8, i8* %70, align 8, !tbaa !18
  %72 = icmp eq i8 %71, 0
  br i1 %72, label %76, label %73

73:                                               ; preds = %69
  %74 = getelementptr inbounds %"class.std::ctype", %"class.std::ctype"* %66, i64 0, i32 9, i64 10
  %75 = load i8, i8* %74, align 1, !tbaa !5
  br label %82

76:                                               ; preds = %69
  call void @_ZNKSt5ctypeIcE13_M_widen_initEv(%"class.std::ctype"* nonnull align 8 dereferenceable(570) %66)
  %77 = bitcast %"class.std::ctype"* %66 to i8 (%"class.std::ctype"*, i8)***
  %78 = load i8 (%"class.std::ctype"*, i8)**, i8 (%"class.std::ctype"*, i8)*** %77, align 8, !tbaa !12
  %79 = getelementptr inbounds i8 (%"class.std::ctype"*, i8)*, i8 (%"class.std::ctype"*, i8)** %78, i64 6
  %80 = load i8 (%"class.std::ctype"*, i8)*, i8 (%"class.std::ctype"*, i8)** %79, align 8
  %81 = call signext i8 %80(%"class.std::ctype"* nonnull align 8 dereferenceable(570) %66, i8 signext 10)
  br label %82

82:                                               ; preds = %73, %76
  %83 = phi i8 [ %75, %73 ], [ %81, %76 ]
  %84 = call nonnull align 8 dereferenceable(8) %"class.std::basic_ostream"* @_ZNSo3putEc(%"class.std::basic_ostream"* nonnull align 8 dereferenceable(8) @_ZSt4cout, i8 signext %83)
  %85 = call nonnull align 8 dereferenceable(8) %"class.std::basic_ostream"* @_ZNSo5flushEv(%"class.std::basic_ostream"* nonnull align 8 dereferenceable(8) %84)
  br label %86

86:                                               ; preds = %42, %82
  %87 = add nuw nsw i32 %30, 1
  %88 = add nuw i32 %29, 1
  %89 = add nuw nsw i64 %28, 1
  %90 = add nuw nsw i64 %27, 1
  %91 = icmp eq i64 %89, %25
  br i1 %91, label %92, label %26, !llvm.loop !20

92:                                               ; preds = %86, %18
  %93 = add nuw nsw i32 %22, 1
  %94 = add nuw nsw i32 %21, 1
  %95 = add nuw nsw i64 %20, 1
  %96 = add i32 %19, -1
  %97 = icmp eq i64 %95, %17
  br i1 %97, label %98, label %18, !llvm.loop !21

98:                                               ; preds = %92, %12
  call void @llvm.lifetime.end.p0i8(i64 501, i8* nonnull %3) #7
  ret i32 0
}

; Function Attrs: argmemonly mustprogress nofree nosync nounwind willreturn
declare void @llvm.lifetime.start.p0i8(i64 immarg, i8* nocapture) #4

; Function Attrs: argmemonly mustprogress nofree nosync nounwind willreturn
declare void @llvm.lifetime.end.p0i8(i64 immarg, i8* nocapture) #4

declare void @_ZSt17__istream_extractRSiPcl(%"class.std::basic_istream"* nonnull align 8 dereferenceable(16), i8*, i64) local_unnamed_addr #0

declare nonnull align 8 dereferenceable(8) %"class.std::basic_ostream"* @_ZSt16__ostream_insertIcSt11char_traitsIcEERSt13basic_ostreamIT_T0_ES6_PKS3_l(%"class.std::basic_ostream"* nonnull align 8 dereferenceable(8), i8*, i64) local_unnamed_addr #0

declare nonnull align 8 dereferenceable(8) %"class.std::basic_ostream"* @_ZNSo3putEc(%"class.std::basic_ostream"* nonnull align 8 dereferenceable(8), i8 signext) local_unnamed_addr #0

declare nonnull align 8 dereferenceable(8) %"class.std::basic_ostream"* @_ZNSo5flushEv(%"class.std::basic_ostream"* nonnull align 8 dereferenceable(8)) local_unnamed_addr #0

; Function Attrs: noreturn
declare void @_ZSt16__throw_bad_castv() local_unnamed_addr #5

declare void @_ZNKSt5ctypeIcE13_M_widen_initEv(%"class.std::ctype"* nonnull align 8 dereferenceable(570)) local_unnamed_addr #0

; Function Attrs: sspstrong uwtable
define internal void @_GLOBAL__sub_I_1006.cpp() #6 section ".text.startup" {
  tail call void @_ZNSt8ios_base4InitC1Ev(%"class.std::ios_base::Init"* nonnull align 1 dereferenceable(1) @_ZStL8__ioinit)
  %1 = tail call i32 @__cxa_atexit(void (i8*)* bitcast (void (%"class.std::ios_base::Init"*)* @_ZNSt8ios_base4InitD1Ev to void (i8*)*), i8* getelementptr inbounds (%"class.std::ios_base::Init", %"class.std::ios_base::Init"* @_ZStL8__ioinit, i64 0, i32 0), i8* nonnull @__dso_handle) #7
  ret void
}


!llvm.module.flags = !{!0, !1, !2, !3}
!llvm.ident = !{!4}

!0 = !{i32 1, !"wchar_size", i32 4}
!1 = !{i32 7, !"PIC Level", i32 2}
!2 = !{i32 7, !"PIE Level", i32 2}
!3 = !{i32 7, !"uwtable", i32 1}
!4 = !{!"clang version 13.0.0"}
!5 = !{!6, !6, i64 0}
!6 = !{!"omnipotent char", !7, i64 0}
!7 = !{!"Simple C++ TBAA"}
!8 = distinct !{!8, !9}
!9 = !{!"llvm.loop.mustprogress"}
!10 = distinct !{!10, !9}
!11 = distinct !{!11, !9}
!12 = !{!13, !13, i64 0}
!13 = !{!"vtable pointer", !7, i64 0}
!14 = !{!15, !16, i64 240}
!15 = !{!"_ZTSSt9basic_iosIcSt11char_traitsIcEE", !16, i64 216, !6, i64 224, !17, i64 225, !16, i64 232, !16, i64 240, !16, i64 248, !16, i64 256}
!16 = !{!"any pointer", !6, i64 0}
!17 = !{!"bool", !6, i64 0}
!18 = !{!19, !6, i64 56}
!19 = !{!"_ZTSSt5ctypeIcE", !16, i64 16, !17, i64 24, !16, i64 32, !16, i64 40, !16, i64 48, !6, i64 56, !6, i64 57, !6, i64 313, !6, i64 569}
!20 = distinct !{!20, !9}
!21 = distinct !{!21, !9}
